; Function Attrs: mustprogress uwtable
define hidden void @_ZN19OpenColorIO_v2_5dev20CTFReaderFunctionElt3endEv(ptr noundef nonnull readonly align 8 captures(none) dereferenceable(120) %0) unnamed_addr #4 align 2 {
  %2 = getelementptr inbounds nuw i8, ptr %0, i64 104
  %3 = load ptr, ptr %2, align 8, !tbaa !435
  %4 = load ptr, ptr %3, align 8, !tbaa !9
  %5 = getelementptr inbounds nuw i8, ptr %4, i64 16
  %6 = load ptr, ptr %5, align 8
  tail call void %6(ptr noundef nonnull align 8 dereferenceable(200) %3)
  ret void
}